target datalayout = "e-m:e-p270:32:32-p271:32:32-p272:64:64-i64:64-i128:128-f80:128-n8:16:32:64-S128"
target triple = "x86_64-pc-linux-gnu"

; Function Attrs: mustprogress nounwind uwtable
define void @_ZN19OpenColorIO_v2_5dev15MatrixTransform5ScaleEPdS1_PKd(ptr noundef %0, ptr noundef %1, ptr noundef %2) #8 align 2 {
  %4 = alloca ptr, align 8
  %5 = alloca ptr, align 8
  %6 = alloca ptr, align 8
  store ptr %0, ptr %4, align 8, !tbaa !70
  store ptr %1, ptr %5, align 8, !tbaa !70
  store ptr %2, ptr %6, align 8, !tbaa !70
  %7 = load ptr, ptr %6, align 8, !tbaa !70
  %8 = icmp ne ptr %7, null
  br i1 %8, label %10, label %9

9:                                                ; preds = %3
  br label %47

10:                                               ; preds = %3
  %11 = load ptr, ptr %4, align 8, !tbaa !70
  %12 = icmp ne ptr %11, null
  br i1 %12, label %13, label %35

13:                                               ; preds = %10
  %14 = load ptr, ptr %4, align 8, !tbaa !70
  call void @llvm.memset.p0.i64(ptr align 8 %14, i8 0, i64 128, i1 false)
  %15 = load ptr, ptr %6, align 8, !tbaa !70
  %16 = getelementptr inbounds double, ptr %15, i64 0
  %17 = load double, ptr %16, align 8, !tbaa !75
  %18 = load ptr, ptr %4, align 8, !tbaa !70
  %19 = getelementptr inbounds double, ptr %18, i64 0
  store double %17, ptr %19, align 8, !tbaa !75
  %20 = load ptr, ptr %6, align 8, !tbaa !70
  %21 = getelementptr inbounds double, ptr %20, i64 1
  %22 = load double, ptr %21, align 8, !tbaa !75
  %23 = load ptr, ptr %4, align 8, !tbaa !70
  %24 = getelementptr inbounds double, ptr %23, i64 5
  store double %22, ptr %24, align 8, !tbaa !75
  %25 = load ptr, ptr %6, align 8, !tbaa !70
  %26 = getelementptr inbounds double, ptr %25, i64 2
  %27 = load double, ptr %26, align 8, !tbaa !75
  %28 = load ptr, ptr %4, align 8, !tbaa !70
  %29 = getelementptr inbounds double, ptr %28, i64 10
  store double %27, ptr %29, align 8, !tbaa !75
  %30 = load ptr, ptr %6, align 8, !tbaa !70
  %31 = getelementptr inbounds double, ptr %30, i64 3
  %32 = load double, ptr %31, align 8, !tbaa !75
  %33 = load ptr, ptr %4, align 8, !tbaa !70
  %34 = getelementptr inbounds double, ptr %33, i64 15
  store double %32, ptr %34, align 8, !tbaa !75
  br label %35

35:                                               ; preds = %13, %10
  %36 = load ptr, ptr %5, align 8, !tbaa !70
  %37 = icmp ne ptr %36, null
  br i1 %37, label %38, label %47

38:                                               ; preds = %35
  %39 = load ptr, ptr %5, align 8, !tbaa !70
  %40 = getelementptr inbounds double, ptr %39, i64 0
  store double 0.000000e+00, ptr %40, align 8, !tbaa !75
  %41 = load ptr, ptr %5, align 8, !tbaa !70
  %42 = getelementptr inbounds double, ptr %41, i64 1
  store double 0.000000e+00, ptr %42, align 8, !tbaa !75
  %43 = load ptr, ptr %5, align 8, !tbaa !70
  %44 = getelementptr inbounds double, ptr %43, i64 2
  store double 0.000000e+00, ptr %44, align 8, !tbaa !75
  %45 = load ptr, ptr %5, align 8, !tbaa !70
  %46 = getelementptr inbounds double, ptr %45, i64 3
  store double 0.000000e+00, ptr %46, align 8, !tbaa !75
  br label %47

47:                                               ; preds = %9, %38, %35
  ret void
}