; Function Attrs: mustprogress nofree norecurse nosync nounwind willreturn memory(argmem: readwrite) uwtable
define void @_ZN19OpenColorIO_v2_5dev15MatrixTransform5ScaleEPdS1_PKd(ptr noundef writeonly %0, ptr noundef writeonly %1, ptr noundef readonly %2) local_unnamed_addr #18 align 2 {
  %.not = icmp eq ptr %2, null
  br i1 %.not, label %18, label %4

4:                                                ; preds = %3
  %.not18 = icmp eq ptr %0, null
  br i1 %.not18, label %16, label %5

5:                                                ; preds = %4
  tail call void @llvm.memset.p0.i64(ptr noundef nonnull align 8 dereferenceable(128) %0, i8 0, i64 128, i1 false)
  %6 = load double, ptr %2, align 8, !tbaa !67
  store double %6, ptr %0, align 8, !tbaa !67
  %7 = getelementptr inbounds nuw i8, ptr %2, i64 8
  %8 = load double, ptr %7, align 8, !tbaa !67
  %9 = getelementptr inbounds nuw i8, ptr %0, i64 40
  store double %8, ptr %9, align 8, !tbaa !67
  %10 = getelementptr inbounds nuw i8, ptr %2, i64 16
  %11 = load double, ptr %10, align 8, !tbaa !67
  %12 = getelementptr inbounds nuw i8, ptr %0, i64 80
  store double %11, ptr %12, align 8, !tbaa !67
  %13 = getelementptr inbounds nuw i8, ptr %2, i64 24
  %14 = load double, ptr %13, align 8, !tbaa !67
  %15 = getelementptr inbounds nuw i8, ptr %0, i64 120
  store double %14, ptr %15, align 8, !tbaa !67
  br label %16

16:                                               ; preds = %5, %4
  %.not19 = icmp eq ptr %1, null
  br i1 %.not19, label %18, label %17

17:                                               ; preds = %16
  tail call void @llvm.memset.p0.i64(ptr noundef nonnull align 8 dereferenceable(32) %1, i8 0, i64 32, i1 false)
  br label %18

18:                                               ; preds = %3, %17, %16
  ret void
}